; Function Attrs: mustprogress uwtable
define noundef zeroext i1 @_Z28gmx_mtop_atomloop_block_nextP23gmx_mtop_atomloop_blockPPK6t_atomPi(ptr noundef %0, ptr nocapture noundef writeonly %1, ptr nocapture noundef writeonly %2) local_unnamed_addr #3 personality ptr @__gxx_personality_v0 {
  %4 = alloca %"class.std::__cxx11::basic_string", align 8
  %5 = alloca %"class.std::allocator.43", align 1
  %6 = alloca %"class.std::filesystem::__cxx11::path", align 8
  %7 = icmp eq ptr %0, null
  br i1 %7, label %8, label %20

8:                                                ; preds = %3
  call void @_ZNSaIcEC1Ev(ptr noundef nonnull align 1 dereferenceable(1) %5) #14
  invoke void @_ZNSt7__cxx1112basic_stringIcSt11char_traitsIcESaIcEEC2IS3_EEPKcRKS3_(ptr noundef nonnull align 8 dereferenceable(32) %4, ptr noundef nonnull @.str.3, ptr noundef nonnull align 1 dereferenceable(1) %5)
          to label %9 unwind label %12

9:                                                ; preds = %8
  invoke void @_ZNSt10filesystem7__cxx114pathC2IA133_cS1_EERKT_NS1_6formatE(ptr noundef nonnull align 8 dereferenceable(40) %6, ptr noundef nonnull align 1 dereferenceable(133) @.str.1, i8 noundef zeroext 2)
          to label %10 unwind label %14

10:                                               ; preds = %9
  invoke void @_Z18gmx_error_functionPKcRKNSt7__cxx1112basic_stringIcSt11char_traitsIcESaIcEEERKNSt10filesystem7__cxx114pathEi(ptr noundef nonnull @.str.2, ptr noundef nonnull align 8 dereferenceable(32) %4, ptr noundef nonnull align 8 dereferenceable(40) %6, i32 noundef 161) #15
          to label %11 unwind label %16

11:                                               ; preds = %10
  unreachable

12:                                               ; preds = %8
  %13 = landingpad { ptr, i32 }
          cleanup
  br label %19

14:                                               ; preds = %9
  %15 = landingpad { ptr, i32 }
          cleanup
  br label %18

16:                                               ; preds = %10
  %17 = landingpad { ptr, i32 }
          cleanup
  call void @_ZNSt10filesystem7__cxx114pathD2Ev(ptr noundef nonnull align 8 dereferenceable(40) %6) #14
  br label %18

18:                                               ; preds = %16, %14
  %.pn = phi { ptr, i32 } [ %17, %16 ], [ %15, %14 ]
  call void @_ZNSt7__cxx1112basic_stringIcSt11char_traitsIcESaIcEED1Ev(ptr noundef nonnull align 8 dereferenceable(32) %4) #14
  br label %19

19:                                               ; preds = %18, %12
  %.pn.pn = phi { ptr, i32 } [ %.pn, %18 ], [ %13, %12 ]
  call void @_ZNSaIcED1Ev(ptr noundef nonnull align 1 dereferenceable(1) %5) #14
  resume { ptr, i32 } %.pn.pn

20:                                               ; preds = %3
  %21 = getelementptr inbounds i8, ptr %0, i64 24
  %22 = load i32, ptr %21, align 8
  %23 = add nsw i32 %22, 1
  store i32 %23, ptr %21, align 8
  %24 = getelementptr inbounds i8, ptr %0, i64 16
  %25 = load ptr, ptr %24, align 8
  %26 = load i32, ptr %25, align 8
  %.not = icmp slt i32 %23, %26
  br i1 %.not, label %48, label %27

27:                                               ; preds = %20
  %28 = getelementptr inbounds i8, ptr %0, i64 8
  %29 = load i64, ptr %28, align 8
  %30 = add i64 %29, 1
  store i64 %30, ptr %28, align 8
  %31 = load ptr, ptr %0, align 8
  %32 = getelementptr inbounds i8, ptr %31, i64 136
  %33 = getelementptr inbounds i8, ptr %31, i64 144
  %34 = load ptr, ptr %33, align 8
  %35 = load ptr, ptr %32, align 8
  %36 = ptrtoint ptr %34 to i64
  %37 = ptrtoint ptr %35 to i64
  %38 = sub i64 %36, %37
  %39 = sdiv exact i64 %38, 56
  %.not25 = icmp ult i64 %30, %39
  br i1 %.not25, label %41, label %40

40:                                               ; preds = %27
  tail call void @_Z9save_freePKcS0_iPv(ptr noundef nonnull @.str, ptr noundef nonnull @.str.1, i32 noundef 154, ptr noundef nonnull %0)
  br label %62

41:                                               ; preds = %27
  %42 = getelementptr inbounds i8, ptr %31, i64 112
  %43 = getelementptr inbounds %struct.gmx_molblock_t, ptr %35, i64 %30
  %44 = load i32, ptr %43, align 8
  %45 = sext i32 %44 to i64
  %46 = load ptr, ptr %42, align 8
  %47 = getelementptr inbounds %struct.gmx_moltype_t, ptr %46, i64 %45, i32 1
  store ptr %47, ptr %24, align 8
  store i32 0, ptr %21, align 8
  br label %48

48:                                               ; preds = %41, %20
  %49 = phi i32 [ 0, %41 ], [ %23, %20 ]
  %50 = phi ptr [ %47, %41 ], [ %25, %20 ]
  %51 = getelementptr inbounds i8, ptr %50, i64 8
  %52 = load ptr, ptr %51, align 8
  %53 = sext i32 %49 to i64
  %54 = getelementptr inbounds %struct.t_atom, ptr %52, i64 %53
  store ptr %54, ptr %1, align 8
  %55 = load ptr, ptr %0, align 8
  %56 = getelementptr inbounds i8, ptr %55, i64 136
  %57 = getelementptr inbounds i8, ptr %0, i64 8
  %58 = load i64, ptr %57, align 8
  %59 = load ptr, ptr %56, align 8
  %60 = getelementptr inbounds %struct.gmx_molblock_t, ptr %59, i64 %58, i32 1
  %61 = load i32, ptr %60, align 4
  store i32 %61, ptr %2, align 4
  br label %62

62:                                               ; preds = %48, %40
  %.023 = phi i1 [ false, %40 ], [ true, %48 ]
  ret i1 %.023
}